target datalayout = "e-m:e-p270:32:32-p271:32:32-p272:64:64-i64:64-i128:128-f80:128-n8:16:32:64-S128"
target triple = "x86_64-pc-linux-gnu"

@err_prefix = internal constant [1 x i8] zeroinitializer, align 1
@.str.3 = private unnamed_addr constant [35 x i8] c"%serror %d with wolfCrypt_Cleanup\0A\00", align 1

; Function Attrs: inlinehint nounwind uwtable
define internal void @bench_stats_free() #3 {
  ret void
}

; Function Attrs: nounwind uwtable
define dso_local i32 @benchmark_free() #0 {
  %1 = alloca i32, align 4
  call void @llvm.lifetime.start.p0(i64 4, ptr %1) #12
  call void @bench_stats_free()
  %2 = call i32 @wolfCrypt_Cleanup()
  store i32 %2, ptr %1, align 4, !tbaa !4
  %3 = icmp ne i32 %2, 0
  br i1 %3, label %4, label %7

4:                                                ; preds = %0
  %5 = load i32, ptr %1, align 4, !tbaa !4
  %6 = call i32 (ptr, ...) @printf(ptr noundef @.str.3, ptr noundef @err_prefix, i32 noundef %5)
  br label %7

7:                                                ; preds = %4, %0
  %8 = load i32, ptr %1, align 4, !tbaa !4
  call void @llvm.lifetime.end.p0(i64 4, ptr %1) #12
  ret i32 %8
}