; Function Attrs: nounwind uwtable
define dso_local i32 @benchmark_free() local_unnamed_addr #0 {
  %1 = tail call i32 @wolfCrypt_Cleanup() #16
  %.not = icmp eq i32 %1, 0
  br i1 %.not, label %4, label %2

2:                                                ; preds = %0
  %3 = tail call i32 (ptr, ...) @printf(ptr noundef nonnull dereferenceable(1) @.str.3, ptr noundef nonnull @.str.113, i32 noundef %1)
  br label %4

4:                                                ; preds = %2, %0
  ret i32 %1
}